target datalayout = "e-m:e-p270:32:32-p271:32:32-p272:64:64-i64:64-i128:128-f80:128-n8:16:32:64-S128"
target triple = "x86_64-pc-linux-gnu"

@stderr = external global ptr, align 8
@.str.10 = private unnamed_addr constant [49 x i8] c"libunwind: __unw_is_fpreg(cursor=%p, regNum=%d)\0A\00", align 1
@_ZZ7logAPIsE7checked = internal global i8 0, align 1
@_ZZ7logAPIsE3log = internal global i8 0, align 1
@.str.15 = private unnamed_addr constant [21 x i8] c"LIBUNWIND_PRINT_APIS\00", align 1

; Function Attrs: mustprogress nounwind uwtable
define hidden zeroext i1 @logAPIs() #0 {
  %1 = load i8, ptr @_ZZ7logAPIsE7checked, align 1, !tbaa !19, !range !21, !noundef !22
  %2 = trunc i8 %1 to i1
  br i1 %2, label %7, label %3

3:                                                ; preds = %0
  %4 = call ptr @getenv(ptr noundef @.str.15) #9
  %5 = icmp ne ptr %4, null
  %6 = zext i1 %5 to i8
  store i8 %6, ptr @_ZZ7logAPIsE3log, align 1, !tbaa !19
  store i8 1, ptr @_ZZ7logAPIsE7checked, align 1, !tbaa !19
  br label %7

7:                                                ; preds = %3, %0
  %8 = load i8, ptr @_ZZ7logAPIsE3log, align 1, !tbaa !19, !range !21, !noundef !22
  %9 = trunc i8 %8 to i1
  ret i1 %9
}

; Function Attrs: mustprogress nounwind uwtable
define hidden i32 @__unw_is_fpreg(ptr noundef %0, i32 noundef %1) #0 {
  %3 = alloca ptr, align 8
  %4 = alloca i32, align 4
  %5 = alloca ptr, align 8
  store ptr %0, ptr %3, align 8, !tbaa !6
  store i32 %1, ptr %4, align 4, !tbaa !37
  br label %6

6:                                                ; preds = %2
  %7 = call zeroext i1 @logAPIs()
  br i1 %7, label %8, label %17

8:                                                ; preds = %6
  br label %9

9:                                                ; preds = %8
  %10 = load ptr, ptr @stderr, align 8, !tbaa !13
  %11 = load ptr, ptr %3, align 8, !tbaa !6
  %12 = load i32, ptr %4, align 4, !tbaa !37
  %13 = call i32 (ptr, ptr, ...) @fprintf(ptr noundef %10, ptr noundef @.str.10, ptr noundef %11, i32 noundef %12) #9
  %14 = load ptr, ptr @stderr, align 8, !tbaa !13
  %15 = call i32 @fflush(ptr noundef %14)
  br label %16

16:                                               ; preds = %9
  br label %17

17:                                               ; preds = %16, %6
  br label %18

18:                                               ; preds = %17
  call void @llvm.lifetime.start.p0(i64 8, ptr %5) #9
  %19 = load ptr, ptr %3, align 8, !tbaa !6
  store ptr %19, ptr %5, align 8, !tbaa !15
  %20 = load ptr, ptr %5, align 8, !tbaa !15
  %21 = load i32, ptr %4, align 4, !tbaa !37
  %22 = load ptr, ptr %20, align 8, !tbaa !17
  %23 = getelementptr inbounds ptr, ptr %22, i64 5
  %24 = load ptr, ptr %23, align 8
  %25 = call noundef zeroext i1 %24(ptr noundef nonnull align 8 dereferenceable(8) %20, i32 noundef %21)
  %26 = zext i1 %25 to i32
  call void @llvm.lifetime.end.p0(i64 8, ptr %5) #9
  ret i32 %26
}